; Function Attrs: mustprogress uwtable
define noundef i64 @_ZN9syscall_t9sys_closeEmmmmmmm(ptr nocapture noundef nonnull readonly align 8 dereferenceable(176) %0, i64 noundef %1, i64 %2, i64 %3, i64 %4, i64 %5, i64 %6, i64 %7) #3 align 2 {
  %9 = getelementptr inbounds i8, ptr %0, i64 96
  %10 = and i64 %1, 4294967295
  %11 = icmp eq i64 %10, 4294967196
  br i1 %11, label %_ZN5fds_t6lookupEm.exit, label %12

12:                                               ; preds = %8
  %13 = getelementptr inbounds i8, ptr %0, i64 104
  %14 = load ptr, ptr %13, align 8
  %15 = load ptr, ptr %9, align 8
  %16 = ptrtoint ptr %14 to i64
  %17 = ptrtoint ptr %15 to i64
  %18 = sub i64 %16, %17
  %19 = ashr exact i64 %18, 2
  %.not.i = icmp ugt i64 %19, %1
  br i1 %.not.i, label %20, label %_ZN5fds_t6lookupEm.exit

20:                                               ; preds = %12
  %21 = getelementptr inbounds i32, ptr %15, i64 %1
  %22 = load i32, ptr %21, align 4
  br label %_ZN5fds_t6lookupEm.exit

_ZN5fds_t6lookupEm.exit:                          ; preds = %8, %12, %20
  %.0.i = phi i32 [ -100, %8 ], [ %22, %20 ], [ -1, %12 ]
  %23 = tail call i32 @close(i32 noundef %.0.i)
  %24 = icmp slt i32 %23, 0
  br i1 %24, label %25, label %30

25:                                               ; preds = %_ZN5fds_t6lookupEm.exit
  %26 = tail call ptr @__errno_location() #30
  %27 = load i32, ptr %26, align 4
  %28 = sub nsw i32 0, %27
  %29 = sext i32 %28 to i64
  br label %33

30:                                               ; preds = %_ZN5fds_t6lookupEm.exit
  %31 = load ptr, ptr %9, align 8
  %32 = getelementptr inbounds i32, ptr %31, i64 %1
  store i32 -1, ptr %32, align 4
  br label %33

33:                                               ; preds = %30, %25
  %.0 = phi i64 [ %29, %25 ], [ 0, %30 ]
  ret i64 %.0
}